target datalayout = "e-m:e-p270:32:32-p271:32:32-p272:64:64-i64:64-i128:128-f80:128-n8:16:32:64-S128"
target triple = "x86_64-pc-linux-gnu"

%struct.pmix_list_t = type { %struct.pmix_object_t, %struct.pmix_list_item_t, i64 }
%struct.pmix_object_t = type { %union.pthread_mutex_t, ptr, i32, %struct.pmix_tma }
%union.pthread_mutex_t = type { %struct.__pthread_mutex_s }
%struct.__pthread_mutex_s = type { i32, i32, i32, i32, i32, i16, i16, %struct.__pthread_internal_list }
%struct.__pthread_internal_list = type { ptr, ptr }
%struct.pmix_tma = type { ptr, ptr, ptr, ptr, ptr, ptr, ptr, ptr }
%struct.pmix_list_item_t = type { %struct.pmix_object_t, ptr, ptr, i32 }
%struct.pmix_globals_t = type { i32, %struct.pmix_proc, %struct.pmix_value, %struct.pmix_value, ptr, i32, i32, ptr, i32, i32, i32, i32, i32, ptr, ptr, i32, %struct.pmix_events_t, i8, i8, %struct.timeval, %struct.pmix_list_t, %struct.pmix_pointer_array_t, i32, i32, %struct.pmix_hotel_t, i8, %struct.pmix_list_t, i8, i8, i8, i64, %struct.pmix_list_t, %struct.pmix_topology_t, %struct.pmix_cpuset_t, i8, i8, %struct.pmix_iof_flags_t, %struct.pmix_keyindex_t }
%struct.pmix_proc = type { [256 x i8], i32 }
%struct.pmix_value = type { i16, %union.anon }
%union.anon = type { %struct.pmix_envar_t }
%struct.pmix_envar_t = type { ptr, ptr, i8 }
%struct.pmix_events_t = type { %struct.pmix_object_t, i64, ptr, ptr, %struct.pmix_list_t, %struct.pmix_list_t, %struct.pmix_list_t, %struct.pmix_list_t }
%struct.timeval = type { i64, i64 }
%struct.pmix_pointer_array_t = type { %struct.pmix_object_t, i32, i32, i32, i32, i32, ptr, ptr }
%struct.pmix_hotel_t = type { %struct.pmix_object_t, i32, ptr, %struct.timeval, ptr, ptr, ptr, ptr, i32 }
%struct.pmix_topology_t = type { ptr, ptr }
%struct.pmix_cpuset_t = type { ptr, ptr }
%struct.pmix_iof_flags_t = type { i8, i8, i8, i8, i8, i8, i8, ptr, ptr, i8, i8, i8, i8, i8, i8 }
%struct.pmix_keyindex_t = type { %struct.pmix_object_t, ptr, i32 }
%struct.pmix_regattr_input_t = type { i32, ptr, ptr, i16, ptr }
%struct.pmix_dstor_t = type { i32, i32, ptr }
%struct.pmix_info = type { [512 x i8], i32, %struct.pmix_value }
%struct.pmix_data_array = type { i16, i64, ptr }
%struct.pmix_proc_data_t = type { %struct.pmix_object_t, ptr, ptr }
%struct.pmix_qual_t = type { i32, ptr }

@pmix_globals = external global %struct.pmix_globals_t, align 8

; Function Attrs: inlinehint nounwind uwtable
define internal ptr @pmix_pointer_array_get_item(ptr noundef %0, i32 noundef %1) #2 {
  %3 = alloca ptr, align 8
  %4 = alloca ptr, align 8
  %5 = alloca i32, align 4
  %6 = alloca ptr, align 8
  %7 = alloca i32, align 4
  store ptr %0, ptr %4, align 8, !tbaa !97
  store i32 %1, ptr %5, align 4, !tbaa !8
  call void @llvm.lifetime.start.p0(i64 8, ptr %6) #15
  %8 = load i32, ptr %5, align 4, !tbaa !8
  %9 = icmp sgt i32 0, %8
  br i1 %9, label %16, label %10

10:                                               ; preds = %2
  %11 = load ptr, ptr %4, align 8, !tbaa !97
  %12 = getelementptr inbounds nuw %struct.pmix_pointer_array_t, ptr %11, i32 0, i32 3
  %13 = load i32, ptr %12, align 8, !tbaa !65
  %14 = load i32, ptr %5, align 4, !tbaa !8
  %15 = icmp sle i32 %13, %14
  br label %16

16:                                               ; preds = %10, %2
  %17 = phi i1 [ true, %2 ], [ %15, %10 ]
  %18 = xor i1 %17, true
  %19 = xor i1 %18, true
  %20 = zext i1 %19 to i32
  %21 = sext i32 %20 to i64
  %22 = call i64 @llvm.expect.i64(i64 %21, i64 0)
  %23 = icmp ne i64 %22, 0
  br i1 %23, label %24, label %25

24:                                               ; preds = %16
  store ptr null, ptr %3, align 8
  store i32 1, ptr %7, align 4
  br label %34

25:                                               ; preds = %16
  %26 = load ptr, ptr %4, align 8, !tbaa !97
  %27 = getelementptr inbounds nuw %struct.pmix_pointer_array_t, ptr %26, i32 0, i32 7
  %28 = load ptr, ptr %27, align 8, !tbaa !98
  %29 = load i32, ptr %5, align 4, !tbaa !8
  %30 = sext i32 %29 to i64
  %31 = getelementptr inbounds ptr, ptr %28, i64 %30
  %32 = load ptr, ptr %31, align 8, !tbaa !10
  store ptr %32, ptr %6, align 8, !tbaa !10
  %33 = load ptr, ptr %6, align 8, !tbaa !10
  store ptr %33, ptr %3, align 8
  store i32 1, ptr %7, align 4
  br label %34

34:                                               ; preds = %25, %24
  call void @llvm.lifetime.end.p0(i64 8, ptr %6) #15
  %35 = load ptr, ptr %3, align 8
  ret ptr %35
}

; Function Attrs: inlinehint nounwind uwtable
define internal ptr @get_keyindex_ptr(ptr noundef %0) #2 {
  %2 = alloca ptr, align 8
  store ptr %0, ptr %2, align 8, !tbaa !10
  %3 = load ptr, ptr %2, align 8, !tbaa !10
  %4 = icmp ne ptr %3, null
  br i1 %4, label %5, label %7

5:                                                ; preds = %1
  %6 = load ptr, ptr %2, align 8, !tbaa !10
  br label %8

7:                                                ; preds = %1
  br label %8

8:                                                ; preds = %7, %5
  %9 = phi ptr [ %6, %5 ], [ getelementptr inbounds nuw (%struct.pmix_globals_t, ptr @pmix_globals, i32 0, i32 37), %7 ]
  ret ptr %9
}

; Function Attrs: nounwind uwtable
define internal ptr @lookup_keyval(ptr noundef %0, i32 noundef %1, ptr noundef %2, i64 noundef %3, ptr noundef %4) #0 {
  %6 = alloca ptr, align 8
  %7 = alloca ptr, align 8
  %8 = alloca i32, align 4
  %9 = alloca ptr, align 8
  %10 = alloca i64, align 8
  %11 = alloca ptr, align 8
  %12 = alloca ptr, align 8
  %13 = alloca ptr, align 8
  %14 = alloca ptr, align 8
  %15 = alloca ptr, align 8
  %16 = alloca i64, align 8
  %17 = alloca i64, align 8
  %18 = alloca i64, align 8
  %19 = alloca i64, align 8
  %20 = alloca i32, align 4
  %21 = alloca ptr, align 8
  %22 = alloca i32, align 4
  store ptr %0, ptr %7, align 8, !tbaa !10
  store i32 %1, ptr %8, align 4, !tbaa !8
  store ptr %2, ptr %9, align 8, !tbaa !11
  store i64 %3, ptr %10, align 8, !tbaa !13
  store ptr %4, ptr %11, align 8, !tbaa !10
  call void @llvm.lifetime.start.p0(i64 8, ptr %12) #15
  call void @llvm.lifetime.start.p0(i64 8, ptr %13) #15
  call void @llvm.lifetime.start.p0(i64 8, ptr %14) #15
  call void @llvm.lifetime.start.p0(i64 8, ptr %15) #15
  call void @llvm.lifetime.start.p0(i64 8, ptr %16) #15
  call void @llvm.lifetime.start.p0(i64 8, ptr %17) #15
  store i64 0, ptr %17, align 8, !tbaa !13
  call void @llvm.lifetime.start.p0(i64 8, ptr %18) #15
  call void @llvm.lifetime.start.p0(i64 8, ptr %19) #15
  call void @llvm.lifetime.start.p0(i64 4, ptr %20) #15
  call void @llvm.lifetime.start.p0(i64 8, ptr %21) #15
  %23 = load ptr, ptr %11, align 8, !tbaa !10
  %24 = call ptr @get_keyindex_ptr(ptr noundef %23)
  store ptr %24, ptr %21, align 8, !tbaa !10
  %25 = load i32, ptr %8, align 4, !tbaa !8
  %26 = load ptr, ptr %21, align 8, !tbaa !10
  %27 = call ptr @pmix_hash_lookup_key(i32 noundef %25, ptr noundef null, ptr noundef %26)
  store ptr %27, ptr %15, align 8, !tbaa !10
  %28 = load ptr, ptr %9, align 8, !tbaa !11
  %29 = icmp ne ptr null, %28
  br i1 %29, label %30, label %48

30:                                               ; preds = %5
  store i64 0, ptr %16, align 8, !tbaa !13
  br label %31

31:                                               ; preds = %44, %30
  %32 = load i64, ptr %16, align 8, !tbaa !13
  %33 = load i64, ptr %10, align 8, !tbaa !13
  %34 = icmp ult i64 %32, %33
  br i1 %34, label %35, label %47

35:                                               ; preds = %31
  %36 = load ptr, ptr %9, align 8, !tbaa !11
  %37 = load i64, ptr %16, align 8, !tbaa !13
  %38 = getelementptr inbounds nuw %struct.pmix_info, ptr %36, i64 %37
  %39 = call zeroext i1 @PMIx_Info_is_qualifier(ptr noundef %38)
  br i1 %39, label %40, label %43

40:                                               ; preds = %35
  %41 = load i64, ptr %17, align 8, !tbaa !13
  %42 = add i64 %41, 1
  store i64 %42, ptr %17, align 8, !tbaa !13
  br label %43

43:                                               ; preds = %40, %35
  br label %44

44:                                               ; preds = %43
  %45 = load i64, ptr %16, align 8, !tbaa !13
  %46 = add i64 %45, 1
  store i64 %46, ptr %16, align 8, !tbaa !13
  br label %31, !llvm.loop !76

47:                                               ; preds = %31
  br label %48

48:                                               ; preds = %47, %5
  store i32 0, ptr %20, align 4, !tbaa !8
  br label %49

49:                                               ; preds = %171, %48
  %50 = load i32, ptr %20, align 4, !tbaa !8
  %51 = load ptr, ptr %7, align 8, !tbaa !10
  %52 = getelementptr inbounds nuw %struct.pmix_proc_data_t, ptr %51, i32 0, i32 1
  %53 = load ptr, ptr %52, align 8, !tbaa !59
  %54 = getelementptr inbounds nuw %struct.pmix_pointer_array_t, ptr %53, i32 0, i32 3
  %55 = load i32, ptr %54, align 8, !tbaa !65
  %56 = icmp slt i32 %50, %55
  br i1 %56, label %57, label %174

57:                                               ; preds = %49
  %58 = load ptr, ptr %7, align 8, !tbaa !10
  %59 = getelementptr inbounds nuw %struct.pmix_proc_data_t, ptr %58, i32 0, i32 1
  %60 = load ptr, ptr %59, align 8, !tbaa !59
  %61 = load i32, ptr %20, align 4, !tbaa !8
  %62 = call ptr @pmix_pointer_array_get_item(ptr noundef %60, i32 noundef %61)
  store ptr %62, ptr %12, align 8, !tbaa !10
  %63 = load ptr, ptr %12, align 8, !tbaa !10
  %64 = icmp eq ptr null, %63
  br i1 %64, label %65, label %66

65:                                               ; preds = %57
  br label %171

66:                                               ; preds = %57
  %67 = load i32, ptr %8, align 4, !tbaa !8
  %68 = load ptr, ptr %12, align 8, !tbaa !10
  %69 = getelementptr inbounds nuw %struct.pmix_dstor_t, ptr %68, i32 0, i32 0
  %70 = load i32, ptr %69, align 8, !tbaa !77
  %71 = icmp eq i32 %67, %70
  br i1 %71, label %72, label %170

72:                                               ; preds = %66
  %73 = load i64, ptr %17, align 8, !tbaa !13
  %74 = icmp ult i64 0, %73
  br i1 %74, label %75, label %161

75:                                               ; preds = %72
  %76 = load ptr, ptr %12, align 8, !tbaa !10
  %77 = getelementptr inbounds nuw %struct.pmix_dstor_t, ptr %76, i32 0, i32 1
  %78 = load i32, ptr %77, align 4, !tbaa !55
  %79 = icmp eq i32 -1, %78
  br i1 %79, label %80, label %81

80:                                               ; preds = %75
  br label %171

81:                                               ; preds = %75
  %82 = load ptr, ptr %7, align 8, !tbaa !10
  %83 = getelementptr inbounds nuw %struct.pmix_proc_data_t, ptr %82, i32 0, i32 2
  %84 = load ptr, ptr %83, align 8, !tbaa !52
  %85 = load ptr, ptr %12, align 8, !tbaa !10
  %86 = getelementptr inbounds nuw %struct.pmix_dstor_t, ptr %85, i32 0, i32 1
  %87 = load i32, ptr %86, align 4, !tbaa !55
  %88 = call ptr @pmix_pointer_array_get_item(ptr noundef %84, i32 noundef %87)
  store ptr %88, ptr %13, align 8, !tbaa !47
  %89 = load ptr, ptr %13, align 8, !tbaa !47
  %90 = getelementptr inbounds nuw %struct.pmix_data_array, ptr %89, i32 0, i32 2
  %91 = load ptr, ptr %90, align 8, !tbaa !49
  store ptr %91, ptr %14, align 8, !tbaa !10
  store i64 0, ptr %19, align 8, !tbaa !13
  store i64 0, ptr %16, align 8, !tbaa !13
  br label %92

92:                                               ; preds = %151, %81
  %93 = load i64, ptr %16, align 8, !tbaa !13
  %94 = load i64, ptr %10, align 8, !tbaa !13
  %95 = icmp ult i64 %93, %94
  br i1 %95, label %96, label %154

96:                                               ; preds = %92
  %97 = load ptr, ptr %9, align 8, !tbaa !11
  %98 = load i64, ptr %16, align 8, !tbaa !13
  %99 = getelementptr inbounds nuw %struct.pmix_info, ptr %97, i64 %98
  %100 = call zeroext i1 @PMIx_Info_is_qualifier(ptr noundef %99)
  br i1 %100, label %102, label %101

101:                                              ; preds = %96
  br label %151

102:                                              ; preds = %96
  %103 = load ptr, ptr %9, align 8, !tbaa !11
  %104 = load i64, ptr %16, align 8, !tbaa !13
  %105 = getelementptr inbounds nuw %struct.pmix_info, ptr %103, i64 %104
  %106 = getelementptr inbounds nuw %struct.pmix_info, ptr %105, i32 0, i32 0
  %107 = getelementptr inbounds [512 x i8], ptr %106, i64 0, i64 0
  %108 = load ptr, ptr %21, align 8, !tbaa !10
  %109 = call ptr @pmix_hash_lookup_key(i32 noundef -1, ptr noundef %107, ptr noundef %108)
  store ptr %109, ptr %15, align 8, !tbaa !10
  %110 = load ptr, ptr %15, align 8, !tbaa !10
  %111 = icmp eq ptr null, %110
  br i1 %111, label %112, label %113

112:                                              ; preds = %102
  store ptr null, ptr %6, align 8
  store i32 1, ptr %22, align 4
  br label %175

113:                                              ; preds = %102
  store i64 0, ptr %18, align 8, !tbaa !13
  br label %114

114:                                              ; preds = %147, %113
  %115 = load i64, ptr %18, align 8, !tbaa !13
  %116 = load ptr, ptr %13, align 8, !tbaa !47
  %117 = getelementptr inbounds nuw %struct.pmix_data_array, ptr %116, i32 0, i32 1
  %118 = load i64, ptr %117, align 8, !tbaa !51
  %119 = icmp ult i64 %115, %118
  br i1 %119, label %120, label %150

120:                                              ; preds = %114
  %121 = load ptr, ptr %14, align 8, !tbaa !10
  %122 = load i64, ptr %18, align 8, !tbaa !13
  %123 = getelementptr inbounds nuw %struct.pmix_qual_t, ptr %121, i64 %122
  %124 = getelementptr inbounds nuw %struct.pmix_qual_t, ptr %123, i32 0, i32 0
  %125 = load i32, ptr %124, align 8, !tbaa !56
  %126 = load ptr, ptr %15, align 8, !tbaa !10
  %127 = getelementptr inbounds nuw %struct.pmix_regattr_input_t, ptr %126, i32 0, i32 0
  %128 = load i32, ptr %127, align 8, !tbaa !37
  %129 = icmp eq i32 %125, %128
  br i1 %129, label %130, label %146

130:                                              ; preds = %120
  %131 = load ptr, ptr %9, align 8, !tbaa !11
  %132 = load i64, ptr %16, align 8, !tbaa !13
  %133 = getelementptr inbounds nuw %struct.pmix_info, ptr %131, i64 %132
  %134 = getelementptr inbounds nuw %struct.pmix_info, ptr %133, i32 0, i32 2
  %135 = load ptr, ptr %14, align 8, !tbaa !10
  %136 = load i64, ptr %18, align 8, !tbaa !13
  %137 = getelementptr inbounds nuw %struct.pmix_qual_t, ptr %135, i64 %136
  %138 = getelementptr inbounds nuw %struct.pmix_qual_t, ptr %137, i32 0, i32 1
  %139 = load ptr, ptr %138, align 8, !tbaa !78
  %140 = call i32 @PMIx_Value_compare(ptr noundef %134, ptr noundef %139)
  %141 = icmp eq i32 0, %140
  br i1 %141, label %142, label %145

142:                                              ; preds = %130
  %143 = load i64, ptr %19, align 8, !tbaa !13
  %144 = add i64 %143, 1
  store i64 %144, ptr %19, align 8, !tbaa !13
  br label %150

145:                                              ; preds = %130
  br label %146

146:                                              ; preds = %145, %120
  br label %147

147:                                              ; preds = %146
  %148 = load i64, ptr %18, align 8, !tbaa !13
  %149 = add i64 %148, 1
  store i64 %149, ptr %18, align 8, !tbaa !13
  br label %114, !llvm.loop !79

150:                                              ; preds = %142, %114
  br label %151

151:                                              ; preds = %150, %101
  %152 = load i64, ptr %16, align 8, !tbaa !13
  %153 = add i64 %152, 1
  store i64 %153, ptr %16, align 8, !tbaa !13
  br label %92, !llvm.loop !80

154:                                              ; preds = %92
  %155 = load i64, ptr %19, align 8, !tbaa !13
  %156 = load i64, ptr %17, align 8, !tbaa !13
  %157 = icmp eq i64 %155, %156
  br i1 %157, label %158, label %160

158:                                              ; preds = %154
  %159 = load ptr, ptr %12, align 8, !tbaa !10
  store ptr %159, ptr %6, align 8
  store i32 1, ptr %22, align 4
  br label %175

160:                                              ; preds = %154
  br label %169

161:                                              ; preds = %72
  %162 = load ptr, ptr %12, align 8, !tbaa !10
  %163 = getelementptr inbounds nuw %struct.pmix_dstor_t, ptr %162, i32 0, i32 1
  %164 = load i32, ptr %163, align 4, !tbaa !55
  %165 = icmp eq i32 -1, %164
  br i1 %165, label %166, label %168

166:                                              ; preds = %161
  %167 = load ptr, ptr %12, align 8, !tbaa !10
  store ptr %167, ptr %6, align 8
  store i32 1, ptr %22, align 4
  br label %175

168:                                              ; preds = %161
  br label %169

169:                                              ; preds = %168, %160
  br label %170

170:                                              ; preds = %169, %66
  br label %171

171:                                              ; preds = %170, %80, %65
  %172 = load i32, ptr %20, align 4, !tbaa !8
  %173 = add nsw i32 %172, 1
  store i32 %173, ptr %20, align 4, !tbaa !8
  br label %49, !llvm.loop !81

174:                                              ; preds = %49
  store ptr null, ptr %6, align 8
  store i32 1, ptr %22, align 4
  br label %175

175:                                              ; preds = %174, %166, %158, %112
  call void @llvm.lifetime.end.p0(i64 8, ptr %21) #15
  call void @llvm.lifetime.end.p0(i64 4, ptr %20) #15
  call void @llvm.lifetime.end.p0(i64 8, ptr %19) #15
  call void @llvm.lifetime.end.p0(i64 8, ptr %18) #15
  call void @llvm.lifetime.end.p0(i64 8, ptr %17) #15
  call void @llvm.lifetime.end.p0(i64 8, ptr %16) #15
  call void @llvm.lifetime.end.p0(i64 8, ptr %15) #15
  call void @llvm.lifetime.end.p0(i64 8, ptr %14) #15
  call void @llvm.lifetime.end.p0(i64 8, ptr %13) #15
  call void @llvm.lifetime.end.p0(i64 8, ptr %12) #15
  %176 = load ptr, ptr %6, align 8
  ret ptr %176
}